; Function Attrs: mustprogress uwtable
define noundef ptr @_ZN32pxrInternal_v0_24__pxrReserved__27Ts_GetClosestKeyFrameBeforeERKNS_13TsKeyFrameMapEd(ptr noundef nonnull align 8 dereferenceable(24) %0, double noundef %1) local_unnamed_addr #0 {
  %3 = load ptr, ptr %0, align 8
  %4 = getelementptr inbounds nuw i8, ptr %0, i64 8
  %5 = load ptr, ptr %4, align 8
  %6 = icmp eq ptr %3, %5
  br i1 %6, label %16, label %7

7:                                                ; preds = %2
  %8 = tail call ptr @_ZNK32pxrInternal_v0_24__pxrReserved__13TsKeyFrameMap11lower_boundEd(ptr noundef nonnull align 8 dereferenceable(24) %0, double noundef %1)
  %9 = load ptr, ptr %4, align 8
  %10 = icmp eq ptr %8, %9
  br i1 %10, label %11, label %13

11:                                               ; preds = %7
  %12 = getelementptr inbounds i8, ptr %9, i64 -72
  br label %16

13:                                               ; preds = %7
  %14 = load ptr, ptr %0, align 8
  %.not = icmp eq ptr %8, %14
  %15 = getelementptr inbounds i8, ptr %8, i64 -72
  %spec.select = select i1 %.not, ptr null, ptr %15
  br label %16

16:                                               ; preds = %13, %2, %11
  %.0 = phi ptr [ %12, %11 ], [ null, %2 ], [ %spec.select, %13 ]
  ret ptr %.0
}